; Function Attrs: mustprogress nounwind uwtable
define internal void @"_ZN9grpc_core14promise_detail15PromiseActivityINS0_6TrySeqINS_5SleepEJZNS_12MaxAgeFilter8PostInitEvE3$_1ZNS4_8PostInitEvE3$_2EEENS_22ExecCtxWakeupSchedulerEZNS4_8PostInitEvE3$_3JPN17grpc_event_engine12experimental11EventEngineEEE4DropEt"(ptr noundef nonnull align 8 dereferenceable(144) %this, i16 zeroext %0) unnamed_addr #4 align 2 {
entry:
  %refs_.i.i = getelementptr inbounds i8, ptr %this, i64 24
  %1 = atomicrmw sub ptr %refs_.i.i, i32 1 acq_rel, align 4
  %cmp.not.i.i = icmp eq i32 %1, 1
  br i1 %cmp.not.i.i, label %delete.notnull.i.i, label %_ZN9grpc_core14promise_detail20FreestandingActivity14WakeupCompleteEv.exit

delete.notnull.i.i:                               ; preds = %entry
  %vtable.i.i = load ptr, ptr %this, align 8
  %vfn.i.i = getelementptr inbounds i8, ptr %vtable.i.i, i64 16
  %2 = load ptr, ptr %vfn.i.i, align 8
  tail call void %2(ptr noundef nonnull align 8 dereferenceable(40) %this) #24
  br label %_ZN9grpc_core14promise_detail20FreestandingActivity14WakeupCompleteEv.exit

_ZN9grpc_core14promise_detail20FreestandingActivity14WakeupCompleteEv.exit: ; preds = %entry, %delete.notnull.i.i
  ret void
}